; Function Attrs: mustprogress uwtable
define internal noundef zeroext i1 @_ZNSt17_Function_handlerIFbllbEZN5arrow7compute8internal12_GLOBAL__N_119PrimitiveFilterImplILi4ELb0EE13ExecREEFilterEvEUlllbE0_E9_M_invokeERKSt9_Any_dataOlSC_Ob(ptr noundef nonnull readonly align 8 captures(none) dereferenceable(16) %0, ptr noundef nonnull readonly align 8 captures(none) dereferenceable(8) %1, ptr noundef nonnull readonly align 8 captures(none) dereferenceable(8) %2, ptr noundef nonnull readonly align 1 captures(none) dereferenceable(1) %3) #1 align 2 {
  %.val = load ptr, ptr %0, align 8, !tbaa !920
  %.val5 = load i64, ptr %2, align 8, !tbaa !75
  %.val6 = load i8, ptr %3, align 1, !tbaa !795, !range !137, !noundef !138
  %5 = trunc nuw i8 %.val6 to i1
  br i1 %5, label %6, label %28

6:                                                ; preds = %4
  %.val4 = load i64, ptr %1, align 8, !tbaa !75
  %7 = getelementptr inbounds nuw i8, ptr %.val, i64 8
  %8 = load ptr, ptr %7, align 8, !tbaa !224
  %9 = getelementptr inbounds nuw i8, ptr %.val, i64 32
  %10 = load i64, ptr %9, align 8, !tbaa !227
  %11 = add nsw i64 %10, %.val4
  %12 = getelementptr inbounds nuw i8, ptr %.val, i64 64
  %13 = load ptr, ptr %12, align 8, !tbaa !230
  %14 = getelementptr inbounds nuw i8, ptr %.val, i64 88
  %15 = load i64, ptr %14, align 8, !tbaa !233
  tail call void @_ZN5arrow8internal10CopyBitmapEPKhllPhl(ptr noundef %8, i64 noundef %11, i64 noundef %.val5, ptr noundef %13, i64 noundef %15)
  %16 = getelementptr inbounds nuw i8, ptr %.val, i64 72
  %17 = load ptr, ptr %16, align 8, !tbaa !231
  %18 = load i64, ptr %14, align 8, !tbaa !233
  %19 = shl nsw i64 %18, 2
  %20 = getelementptr inbounds i8, ptr %17, i64 %19
  %21 = getelementptr inbounds nuw i8, ptr %.val, i64 16
  %22 = load ptr, ptr %21, align 8, !tbaa !225
  %23 = shl nsw i64 %.val4, 2
  %24 = getelementptr inbounds i8, ptr %22, i64 %23
  %25 = shl nsw i64 %.val5, 2
  tail call void @llvm.memcpy.p0.p0.i64(ptr align 1 %20, ptr align 1 %24, i64 %25, i1 false)
  %26 = load i64, ptr %14, align 8, !tbaa !233
  %27 = add nsw i64 %26, %.val5
  store i64 %27, ptr %14, align 8, !tbaa !233
  br label %_ZSt10__invoke_rIbRZN5arrow7compute8internal12_GLOBAL__N_119PrimitiveFilterImplILi4ELb0EE13ExecREEFilterEvEUlllbE0_JllbEENSt9enable_ifIX16is_invocable_r_vIT_T0_DpT1_EES9_E4typeEOSA_DpOSB_.exit

28:                                               ; preds = %4
  %29 = getelementptr inbounds nuw i8, ptr %.val, i64 64
  %30 = load ptr, ptr %29, align 8, !tbaa !230
  %31 = getelementptr inbounds nuw i8, ptr %.val, i64 88
  %32 = load i64, ptr %31, align 8, !tbaa !233
  tail call void @_ZN5arrow8bit_util9SetBitsToEPhllb(ptr noundef %30, i64 noundef %32, i64 noundef %.val5, i1 noundef zeroext false)
  %33 = getelementptr inbounds nuw i8, ptr %.val, i64 72
  %34 = load ptr, ptr %33, align 8, !tbaa !231
  %35 = load i64, ptr %31, align 8, !tbaa !233
  %36 = shl nsw i64 %35, 2
  %37 = getelementptr inbounds i8, ptr %34, i64 %36
  %38 = shl nsw i64 %.val5, 2
  tail call void @llvm.memset.p0.i64(ptr align 1 %37, i8 0, i64 %38, i1 false)
  %39 = load i64, ptr %31, align 8, !tbaa !233
  %40 = add nsw i64 %39, %.val5
  store i64 %40, ptr %31, align 8, !tbaa !233
  br label %_ZSt10__invoke_rIbRZN5arrow7compute8internal12_GLOBAL__N_119PrimitiveFilterImplILi4ELb0EE13ExecREEFilterEvEUlllbE0_JllbEENSt9enable_ifIX16is_invocable_r_vIT_T0_DpT1_EES9_E4typeEOSA_DpOSB_.exit

_ZSt10__invoke_rIbRZN5arrow7compute8internal12_GLOBAL__N_119PrimitiveFilterImplILi4ELb0EE13ExecREEFilterEvEUlllbE0_JllbEENSt9enable_ifIX16is_invocable_r_vIT_T0_DpT1_EES9_E4typeEOSA_DpOSB_.exit: ; preds = %6, %28
  ret i1 true
}